target datalayout = "e-m:e-p270:32:32-p271:32:32-p272:64:64-i64:64-i128:128-f80:128-n8:16:32:64-S128"
target triple = "x86_64-pc-linux-gnu"

%struct.hashmap = type { ptr, ptr, ptr, i32, i32, i32, i32, i8 }
%struct.repository = type { ptr, ptr, ptr, ptr, ptr, %struct.strmap, %struct.strmap, %struct.repo_path_cache, ptr, ptr, ptr, ptr, %struct.repo_settings, ptr, ptr, ptr, ptr, ptr, ptr, i32, i32, i32, ptr, ptr, i32, i32, i8 }
%struct.strmap = type { %struct.hashmap, ptr, i8 }
%struct.repo_path_cache = type { ptr, ptr, ptr, ptr, ptr, ptr, ptr }
%struct.repo_settings = type { i32, i32, i32, i32, i32, i32, i32, i32, i32, i32, i32, i32, ptr, i32, i32, i32, i32, i32, i32, i32, i64, i64, i64 }
%struct.object_id = type { [32 x i8], i32 }
%struct.submodule_entry_list = type { ptr, i32, i32 }
%struct.tree_desc = type { ptr, ptr, %struct.name_entry, i32, i32 }
%struct.name_entry = type { %struct.object_id, ptr, i32, i32 }
%struct.submodule_tree_entry = type { ptr, ptr, ptr }

@.str.38 = private unnamed_addr constant [6 x i8] c"%s/%s\00", align 1
@.str.39 = private unnamed_addr constant [27 x i8] c"size_t overflow: %lu * %lu\00", align 1

; Function Attrs: nounwind uwtable
define dso_local ptr @submodule_from_path(ptr noundef %0, ptr noundef %1, ptr noundef %2) #0 {
  %4 = alloca ptr, align 8
  %5 = alloca ptr, align 8
  %6 = alloca ptr, align 8
  store ptr %0, ptr %4, align 8, !tbaa !31
  store ptr %1, ptr %5, align 8, !tbaa !82
  store ptr %2, ptr %6, align 8, !tbaa !13
  %7 = load ptr, ptr %4, align 8, !tbaa !31
  call void @repo_read_gitmodules(ptr noundef %7, i32 noundef 1)
  %8 = load ptr, ptr %4, align 8, !tbaa !31
  %9 = getelementptr inbounds nuw %struct.repository, ptr %8, i32 0, i32 14
  %10 = load ptr, ptr %9, align 8, !tbaa !33
  %11 = load ptr, ptr %5, align 8, !tbaa !82
  %12 = load ptr, ptr %6, align 8, !tbaa !13
  %13 = call ptr @config_from(ptr noundef %10, ptr noundef %11, ptr noundef %12, i32 noundef 1)
  ret ptr %13
}

; Function Attrs: inlinehint nounwind uwtable
define internal i64 @st_mult(i64 noundef %0, i64 noundef %1) #2 {
  %3 = alloca i64, align 8
  %4 = alloca i64, align 8
  store i64 %0, ptr %3, align 8, !tbaa !94
  store i64 %1, ptr %4, align 8, !tbaa !94
  %5 = load i64, ptr %3, align 8, !tbaa !94
  %6 = icmp ne i64 %5, 0
  br i1 %6, label %7, label %15

7:                                                ; preds = %2
  %8 = load i64, ptr %4, align 8, !tbaa !94
  %9 = load i64, ptr %3, align 8, !tbaa !94
  %10 = udiv i64 -1, %9
  %11 = icmp ugt i64 %8, %10
  br i1 %11, label %12, label %15

12:                                               ; preds = %7
  %13 = load i64, ptr %3, align 8, !tbaa !94
  %14 = load i64, ptr %4, align 8, !tbaa !94
  call void (ptr, ...) @die(ptr noundef @.str.39, i64 noundef %13, i64 noundef %14) #11
  unreachable

15:                                               ; preds = %7, %2
  %16 = load i64, ptr %3, align 8, !tbaa !94
  %17 = load i64, ptr %4, align 8, !tbaa !94
  %18 = mul i64 %16, %17
  ret i64 %18
}

; Function Attrs: nounwind uwtable
define internal void @traverse_tree_submodules(ptr noundef %0, ptr noundef %1, ptr noundef %2, ptr noundef %3, ptr noundef %4) #0 {
  %6 = alloca ptr, align 8
  %7 = alloca ptr, align 8
  %8 = alloca ptr, align 8
  %9 = alloca ptr, align 8
  %10 = alloca ptr, align 8
  %11 = alloca %struct.tree_desc, align 8
  %12 = alloca ptr, align 8
  %13 = alloca %struct.name_entry, align 8
  %14 = alloca ptr, align 8
  %15 = alloca ptr, align 8
  store ptr %0, ptr %6, align 8, !tbaa !31
  store ptr %1, ptr %7, align 8, !tbaa !82
  store ptr %2, ptr %8, align 8, !tbaa !13
  store ptr %3, ptr %9, align 8, !tbaa !82
  store ptr %4, ptr %10, align 8, !tbaa !95
  call void @llvm.lifetime.start.p0(i64 80, ptr %11) #9
  call void @llvm.lifetime.start.p0(i64 8, ptr %12) #9
  call void @llvm.lifetime.start.p0(i64 56, ptr %13) #9
  call void @llvm.lifetime.start.p0(i64 8, ptr %14) #9
  store ptr null, ptr %14, align 8, !tbaa !13
  call void @llvm.lifetime.start.p0(i64 8, ptr %15) #9
  %16 = load ptr, ptr %6, align 8, !tbaa !31
  %17 = load ptr, ptr %9, align 8, !tbaa !82
  %18 = call ptr @fill_tree_descriptor(ptr noundef %16, ptr noundef %11, ptr noundef %17)
  store ptr %18, ptr %15, align 8, !tbaa !13
  br label %19

19:                                               ; preds = %152, %5
  %20 = call i32 @tree_entry(ptr noundef %11, ptr noundef %13)
  %21 = icmp ne i32 %20, 0
  br i1 %21, label %22, label %154

22:                                               ; preds = %19
  %23 = load ptr, ptr %8, align 8, !tbaa !13
  %24 = icmp ne ptr %23, null
  br i1 %24, label %25, label %30

25:                                               ; preds = %22
  %26 = load ptr, ptr %8, align 8, !tbaa !13
  %27 = getelementptr inbounds nuw %struct.name_entry, ptr %13, i32 0, i32 1
  %28 = load ptr, ptr %27, align 8, !tbaa !102
  %29 = call ptr (ptr, ...) @mkpathdup(ptr noundef @.str.38, ptr noundef %26, ptr noundef %28)
  store ptr %29, ptr %14, align 8, !tbaa !13
  br label %34

30:                                               ; preds = %22
  %31 = getelementptr inbounds nuw %struct.name_entry, ptr %13, i32 0, i32 1
  %32 = load ptr, ptr %31, align 8, !tbaa !102
  %33 = call ptr @xstrdup(ptr noundef %32)
  store ptr %33, ptr %14, align 8, !tbaa !13
  br label %34

34:                                               ; preds = %30, %25
  %35 = getelementptr inbounds nuw %struct.name_entry, ptr %13, i32 0, i32 3
  %36 = load i32, ptr %35, align 4, !tbaa !105
  %37 = and i32 %36, 61440
  %38 = icmp eq i32 %37, 57344
  br i1 %38, label %39, label %140

39:                                               ; preds = %34
  %40 = load ptr, ptr %6, align 8, !tbaa !31
  %41 = load ptr, ptr %7, align 8, !tbaa !82
  %42 = load ptr, ptr %14, align 8, !tbaa !13
  %43 = call i32 @is_tree_submodule_active(ptr noundef %40, ptr noundef %41, ptr noundef %42)
  %44 = icmp ne i32 %43, 0
  br i1 %44, label %45, label %140

45:                                               ; preds = %39
  br label %46

46:                                               ; preds = %45
  %47 = load ptr, ptr %10, align 8, !tbaa !95
  %48 = getelementptr inbounds nuw %struct.submodule_entry_list, ptr %47, i32 0, i32 1
  %49 = load i32, ptr %48, align 8, !tbaa !100
  %50 = add nsw i32 %49, 1
  %51 = load ptr, ptr %10, align 8, !tbaa !95
  %52 = getelementptr inbounds nuw %struct.submodule_entry_list, ptr %51, i32 0, i32 2
  %53 = load i32, ptr %52, align 4, !tbaa !101
  %54 = icmp sgt i32 %50, %53
  br i1 %54, label %55, label %95

55:                                               ; preds = %46
  %56 = load ptr, ptr %10, align 8, !tbaa !95
  %57 = getelementptr inbounds nuw %struct.submodule_entry_list, ptr %56, i32 0, i32 2
  %58 = load i32, ptr %57, align 4, !tbaa !101
  %59 = add nsw i32 %58, 16
  %60 = mul nsw i32 %59, 3
  %61 = sdiv i32 %60, 2
  %62 = load ptr, ptr %10, align 8, !tbaa !95
  %63 = getelementptr inbounds nuw %struct.submodule_entry_list, ptr %62, i32 0, i32 1
  %64 = load i32, ptr %63, align 8, !tbaa !100
  %65 = add nsw i32 %64, 1
  %66 = icmp slt i32 %61, %65
  br i1 %66, label %67, label %74

67:                                               ; preds = %55
  %68 = load ptr, ptr %10, align 8, !tbaa !95
  %69 = getelementptr inbounds nuw %struct.submodule_entry_list, ptr %68, i32 0, i32 1
  %70 = load i32, ptr %69, align 8, !tbaa !100
  %71 = add nsw i32 %70, 1
  %72 = load ptr, ptr %10, align 8, !tbaa !95
  %73 = getelementptr inbounds nuw %struct.submodule_entry_list, ptr %72, i32 0, i32 2
  store i32 %71, ptr %73, align 4, !tbaa !101
  br label %83

74:                                               ; preds = %55
  %75 = load ptr, ptr %10, align 8, !tbaa !95
  %76 = getelementptr inbounds nuw %struct.submodule_entry_list, ptr %75, i32 0, i32 2
  %77 = load i32, ptr %76, align 4, !tbaa !101
  %78 = add nsw i32 %77, 16
  %79 = mul nsw i32 %78, 3
  %80 = sdiv i32 %79, 2
  %81 = load ptr, ptr %10, align 8, !tbaa !95
  %82 = getelementptr inbounds nuw %struct.submodule_entry_list, ptr %81, i32 0, i32 2
  store i32 %80, ptr %82, align 4, !tbaa !101
  br label %83

83:                                               ; preds = %74, %67
  %84 = load ptr, ptr %10, align 8, !tbaa !95
  %85 = getelementptr inbounds nuw %struct.submodule_entry_list, ptr %84, i32 0, i32 0
  %86 = load ptr, ptr %85, align 8, !tbaa !97
  %87 = load ptr, ptr %10, align 8, !tbaa !95
  %88 = getelementptr inbounds nuw %struct.submodule_entry_list, ptr %87, i32 0, i32 2
  %89 = load i32, ptr %88, align 4, !tbaa !101
  %90 = sext i32 %89 to i64
  %91 = call i64 @st_mult(i64 noundef 24, i64 noundef %90)
  %92 = call ptr @xrealloc(ptr noundef %86, i64 noundef %91)
  %93 = load ptr, ptr %10, align 8, !tbaa !95
  %94 = getelementptr inbounds nuw %struct.submodule_entry_list, ptr %93, i32 0, i32 0
  store ptr %92, ptr %94, align 8, !tbaa !97
  br label %95

95:                                               ; preds = %83, %46
  br label %96

96:                                               ; preds = %95
  br label %97

97:                                               ; preds = %96
  %98 = load ptr, ptr %10, align 8, !tbaa !95
  %99 = getelementptr inbounds nuw %struct.submodule_entry_list, ptr %98, i32 0, i32 0
  %100 = load ptr, ptr %99, align 8, !tbaa !97
  %101 = load ptr, ptr %10, align 8, !tbaa !95
  %102 = getelementptr inbounds nuw %struct.submodule_entry_list, ptr %101, i32 0, i32 1
  %103 = load i32, ptr %102, align 8, !tbaa !100
  %104 = add nsw i32 %103, 1
  store i32 %104, ptr %102, align 8, !tbaa !100
  %105 = sext i32 %103 to i64
  %106 = getelementptr inbounds %struct.submodule_tree_entry, ptr %100, i64 %105
  store ptr %106, ptr %12, align 8, !tbaa !106
  %107 = call ptr @xmalloc(i64 noundef 56)
  %108 = load ptr, ptr %12, align 8, !tbaa !106
  %109 = getelementptr inbounds nuw %struct.submodule_tree_entry, ptr %108, i32 0, i32 0
  store ptr %107, ptr %109, align 8, !tbaa !107
  %110 = load ptr, ptr %12, align 8, !tbaa !106
  %111 = getelementptr inbounds nuw %struct.submodule_tree_entry, ptr %110, i32 0, i32 0
  %112 = load ptr, ptr %111, align 8, !tbaa !107
  call void @llvm.memcpy.p0.p0.i64(ptr align 8 %112, ptr align 8 %13, i64 56, i1 false), !tbaa.struct !110
  %113 = load ptr, ptr %6, align 8, !tbaa !31
  %114 = load ptr, ptr %7, align 8, !tbaa !82
  %115 = load ptr, ptr %14, align 8, !tbaa !13
  %116 = call ptr @submodule_from_path(ptr noundef %113, ptr noundef %114, ptr noundef %115)
  %117 = load ptr, ptr %12, align 8, !tbaa !106
  %118 = getelementptr inbounds nuw %struct.submodule_tree_entry, ptr %117, i32 0, i32 2
  store ptr %116, ptr %118, align 8, !tbaa !111
  %119 = call ptr @xmalloc(i64 noundef 464)
  %120 = load ptr, ptr %12, align 8, !tbaa !106
  %121 = getelementptr inbounds nuw %struct.submodule_tree_entry, ptr %120, i32 0, i32 1
  store ptr %119, ptr %121, align 8, !tbaa !112
  %122 = load ptr, ptr %12, align 8, !tbaa !106
  %123 = getelementptr inbounds nuw %struct.submodule_tree_entry, ptr %122, i32 0, i32 1
  %124 = load ptr, ptr %123, align 8, !tbaa !112
  %125 = load ptr, ptr %6, align 8, !tbaa !31
  %126 = load ptr, ptr %14, align 8, !tbaa !13
  %127 = load ptr, ptr %7, align 8, !tbaa !82
  %128 = call i32 @repo_submodule_init(ptr noundef %124, ptr noundef %125, ptr noundef %126, ptr noundef %127)
  %129 = icmp ne i32 %128, 0
  br i1 %129, label %130, label %139

130:                                              ; preds = %97
  br label %131

131:                                              ; preds = %130
  %132 = load ptr, ptr %12, align 8, !tbaa !106
  %133 = getelementptr inbounds nuw %struct.submodule_tree_entry, ptr %132, i32 0, i32 1
  %134 = load ptr, ptr %133, align 8, !tbaa !112
  call void @free(ptr noundef %134) #9
  %135 = load ptr, ptr %12, align 8, !tbaa !106
  %136 = getelementptr inbounds nuw %struct.submodule_tree_entry, ptr %135, i32 0, i32 1
  store ptr null, ptr %136, align 8, !tbaa !112
  br label %137

137:                                              ; preds = %131
  br label %138

138:                                              ; preds = %137
  br label %139

139:                                              ; preds = %138, %97
  br label %152

140:                                              ; preds = %39, %34
  %141 = getelementptr inbounds nuw %struct.name_entry, ptr %13, i32 0, i32 3
  %142 = load i32, ptr %141, align 4, !tbaa !105
  %143 = and i32 %142, 61440
  %144 = icmp eq i32 %143, 16384
  br i1 %144, label %145, label %151

145:                                              ; preds = %140
  %146 = load ptr, ptr %6, align 8, !tbaa !31
  %147 = load ptr, ptr %7, align 8, !tbaa !82
  %148 = load ptr, ptr %14, align 8, !tbaa !13
  %149 = getelementptr inbounds nuw %struct.name_entry, ptr %13, i32 0, i32 0
  %150 = load ptr, ptr %10, align 8, !tbaa !95
  call void @traverse_tree_submodules(ptr noundef %146, ptr noundef %147, ptr noundef %148, ptr noundef %149, ptr noundef %150)
  br label %151

151:                                              ; preds = %145, %140
  br label %152

152:                                              ; preds = %151, %139
  %153 = load ptr, ptr %14, align 8, !tbaa !13
  call void @free(ptr noundef %153) #9
  br label %19, !llvm.loop !113

154:                                              ; preds = %19
  %155 = load ptr, ptr %15, align 8, !tbaa !13
  call void @free(ptr noundef %155) #9
  call void @llvm.lifetime.end.p0(i64 8, ptr %15) #9
  call void @llvm.lifetime.end.p0(i64 8, ptr %14) #9
  call void @llvm.lifetime.end.p0(i64 56, ptr %13) #9
  call void @llvm.lifetime.end.p0(i64 8, ptr %12) #9
  call void @llvm.lifetime.end.p0(i64 80, ptr %11) #9
  ret void
}