; Function Attrs: nounwind uwtable
define internal fastcc void @traverse_tree_submodules(ptr noundef %0, ptr noundef %1, ptr noundef %2, ptr noundef %3, ptr noundef captures(none) %4) unnamed_addr #0 {
  %6 = alloca %struct.tree_desc, align 8
  %7 = alloca %struct.name_entry, align 8
  call void @llvm.lifetime.start.p0(i64 80, ptr nonnull %6) #15
  call void @llvm.lifetime.start.p0(i64 56, ptr nonnull %7) #15
  %8 = call ptr @fill_tree_descriptor(ptr noundef %0, ptr noundef nonnull %6, ptr noundef %3) #15
  %9 = call i32 @tree_entry(ptr noundef nonnull %6, ptr noundef nonnull %7) #15
  %.not48 = icmp eq i32 %9, 0
  br i1 %.not48, label %._crit_edge, label %.lr.ph

.lr.ph:                                           ; preds = %5
  %.not43 = icmp eq ptr %2, null
  %10 = getelementptr inbounds nuw i8, ptr %7, i64 40
  %11 = getelementptr inbounds nuw i8, ptr %7, i64 52
  %12 = getelementptr inbounds nuw i8, ptr %4, i64 8
  %13 = getelementptr inbounds nuw i8, ptr %4, i64 12
  %14 = getelementptr inbounds nuw i8, ptr %0, i64 376
  br label %15

15:                                               ; preds = %.lr.ph, %61
  %16 = load ptr, ptr %10, align 8, !tbaa !95
  br i1 %.not43, label %19, label %17

17:                                               ; preds = %15
  %18 = call ptr (ptr, ...) @mkpathdup(ptr noundef nonnull @.str.38, ptr noundef nonnull %2, ptr noundef %16) #15
  br label %21

19:                                               ; preds = %15
  %20 = call ptr @xstrdup(ptr noundef %16) #15
  br label %21

21:                                               ; preds = %19, %17
  %.0 = phi ptr [ %18, %17 ], [ %20, %19 ]
  %22 = load i32, ptr %11, align 4, !tbaa !97
  %23 = and i32 %22, 61440
  %24 = icmp eq i32 %23, 57344
  br i1 %24, label %25, label %56

25:                                               ; preds = %21
  %26 = call i32 @is_tree_submodule_active(ptr noundef %0, ptr noundef %1, ptr noundef %.0) #15
  %.not44 = icmp eq i32 %26, 0
  br i1 %.not44, label %._crit_edge51, label %27

._crit_edge51:                                    ; preds = %25
  %.pre52 = load i32, ptr %11, align 4, !tbaa !97
  br label %56

27:                                               ; preds = %25
  %28 = load i32, ptr %12, align 8, !tbaa !93
  %29 = load i32, ptr %13, align 4, !tbaa !94
  %.not45 = icmp slt i32 %28, %29
  br i1 %.not45, label %._crit_edge49, label %30

._crit_edge49:                                    ; preds = %27
  %.pre = load ptr, ptr %4, align 8, !tbaa !90
  br label %41

30:                                               ; preds = %27
  %31 = add nsw i32 %28, 1
  %32 = mul i32 %29, 3
  %33 = add i32 %32, 48
  %34 = sdiv i32 %33, 2
  %.not46 = icmp sgt i32 %34, %28
  %. = select i1 %.not46, i32 %34, i32 %31
  store i32 %., ptr %13, align 4, !tbaa !94
  %35 = sext i32 %. to i64
  %36 = icmp slt i32 %., 0
  br i1 %36, label %37, label %st_mult.exit

37:                                               ; preds = %30
  call void (ptr, ...) @die(ptr noundef nonnull @.str.39, i64 noundef 24, i64 noundef range(i64 -2147483648, 2147483648) %35) #17
  unreachable

st_mult.exit:                                     ; preds = %30
  %38 = load ptr, ptr %4, align 8, !tbaa !90
  %39 = mul nuw nsw i64 %35, 24
  %40 = call ptr @xrealloc(ptr noundef %38, i64 noundef %39) #15
  store ptr %40, ptr %4, align 8, !tbaa !90
  %.pre50 = load i32, ptr %12, align 8, !tbaa !93
  br label %41

41:                                               ; preds = %._crit_edge49, %st_mult.exit
  %42 = phi i32 [ %28, %._crit_edge49 ], [ %.pre50, %st_mult.exit ]
  %43 = phi ptr [ %.pre, %._crit_edge49 ], [ %40, %st_mult.exit ]
  %44 = add nsw i32 %42, 1
  store i32 %44, ptr %12, align 8, !tbaa !93
  %45 = sext i32 %42 to i64
  %46 = getelementptr inbounds %struct.submodule_tree_entry, ptr %43, i64 %45
  %47 = call ptr @xmalloc(i64 noundef 56) #15
  store ptr %47, ptr %46, align 8, !tbaa !98
  call void @llvm.memcpy.p0.p0.i64(ptr noundef nonnull align 8 dereferenceable(56) %47, ptr noundef nonnull align 8 dereferenceable(56) %7, i64 56, i1 false), !tbaa.struct !101
  call void @repo_read_gitmodules(ptr noundef %0, i32 noundef 1)
  %48 = load ptr, ptr %14, align 8, !tbaa !31
  %49 = call fastcc ptr @config_from(ptr noundef %48, ptr noundef %1, ptr noundef %.0, i32 noundef 1)
  %50 = getelementptr inbounds nuw i8, ptr %46, i64 16
  store ptr %49, ptr %50, align 8, !tbaa !103
  %51 = call ptr @xmalloc(i64 noundef 464) #15
  %52 = getelementptr inbounds nuw i8, ptr %46, i64 8
  store ptr %51, ptr %52, align 8, !tbaa !104
  %53 = call i32 @repo_submodule_init(ptr noundef %51, ptr noundef %0, ptr noundef %.0, ptr noundef %1) #15
  %.not47 = icmp eq i32 %53, 0
  br i1 %.not47, label %61, label %54

54:                                               ; preds = %41
  %55 = load ptr, ptr %52, align 8, !tbaa !104
  call void @free(ptr noundef %55) #15
  store ptr null, ptr %52, align 8, !tbaa !104
  br label %61

56:                                               ; preds = %._crit_edge51, %21
  %57 = phi i32 [ %.pre52, %._crit_edge51 ], [ %22, %21 ]
  %58 = and i32 %57, 61440
  %59 = icmp eq i32 %58, 16384
  br i1 %59, label %60, label %61

60:                                               ; preds = %56
  call fastcc void @traverse_tree_submodules(ptr noundef %0, ptr noundef %1, ptr noundef %.0, ptr noundef nonnull %7, ptr noundef %4)
  br label %61

61:                                               ; preds = %56, %60, %41, %54
  call void @free(ptr noundef %.0) #15
  %62 = call i32 @tree_entry(ptr noundef nonnull %6, ptr noundef nonnull %7) #15
  %.not = icmp eq i32 %62, 0
  br i1 %.not, label %._crit_edge, label %15, !llvm.loop !105

._crit_edge:                                      ; preds = %61, %5
  call void @free(ptr noundef %8) #15
  call void @llvm.lifetime.end.p0(i64 56, ptr nonnull %7) #15
  call void @llvm.lifetime.end.p0(i64 80, ptr nonnull %6) #15
  ret void
}